target datalayout = "e-m:e-p270:32:32-p271:32:32-p272:64:64-i64:64-i128:128-f80:128-n8:16:32:64-S128"
target triple = "x86_64-pc-linux-gnu"

%"class.std::optional" = type { %"struct.std::_Optional_base" }
%"struct.std::_Optional_base" = type { %"struct.std::_Optional_payload" }
%"struct.std::_Optional_payload" = type { %"struct.std::_Optional_payload_base.base", [7 x i8] }
%"struct.std::_Optional_payload_base.base" = type <{ %"union.std::_Optional_payload_base<llvm::object::SectionedAddress>::_Storage", i8 }>
%"union.std::_Optional_payload_base<llvm::object::SectionedAddress>::_Storage" = type { %"struct.llvm::object::SectionedAddress" }
%"struct.llvm::object::SectionedAddress" = type { i64, i64 }
%"class.(anonymous namespace)::DWARFLocationInterpreter" = type { %"class.std::optional", %"class.std::function.2" }
%"class.std::function.2" = type { %"class.std::_Function_base", ptr }
%"class.std::_Function_base" = type { %"union.std::_Any_data", ptr }
%"union.std::_Any_data" = type { %"union.std::_Nocopy_types" }
%"union.std::_Nocopy_types" = type { { i64, i64 } }
%"class.llvm::Error" = type { ptr }
%"class.llvm::function_ref" = type { ptr, i64 }
%"class.llvm::function_ref.6" = type { ptr, i64 }
%class.anon.7 = type { ptr, ptr }

; Function Attrs: mustprogress nounwind uwtable
define linkonce_odr hidden noundef zeroext i1 @_ZNKSt14_Function_base8_M_emptyEv(ptr noundef nonnull align 8 dereferenceable(24) %0) #0 comdat align 2 {
  %2 = alloca ptr, align 8
  store ptr %0, ptr %2, align 8
  %3 = load ptr, ptr %2, align 8
  %4 = getelementptr inbounds nuw %"class.std::_Function_base", ptr %3, i32 0, i32 1
  %5 = load ptr, ptr %4, align 8
  %6 = icmp ne ptr %5, null
  %7 = xor i1 %6, true
  ret i1 %7
}

; Function Attrs: mustprogress nounwind uwtable
define linkonce_odr hidden void @_ZNSt14_Function_baseD2Ev(ptr noundef nonnull align 8 dereferenceable(24) %0) unnamed_addr #0 comdat align 2 {
  %2 = alloca ptr, align 8
  store ptr %0, ptr %2, align 8
  %3 = load ptr, ptr %2, align 8
  %4 = getelementptr inbounds nuw %"class.std::_Function_base", ptr %3, i32 0, i32 1
  %5 = load ptr, ptr %4, align 8
  %6 = icmp ne ptr %5, null
  br i1 %6, label %7, label %13

7:                                                ; preds = %1
  %8 = getelementptr inbounds nuw %"class.std::_Function_base", ptr %3, i32 0, i32 1
  %9 = load ptr, ptr %8, align 8
  %10 = getelementptr inbounds nuw %"class.std::_Function_base", ptr %3, i32 0, i32 0
  %11 = getelementptr inbounds nuw %"class.std::_Function_base", ptr %3, i32 0, i32 0
  %12 = call noundef zeroext i1 %9(ptr noundef nonnull align 8 dereferenceable(16) %10, ptr noundef nonnull align 8 dereferenceable(16) %11, i32 noundef 3)
  br label %13

13:                                               ; preds = %7, %1
  ret void
}

; Function Attrs: mustprogress nounwind uwtable
define linkonce_odr hidden noundef zeroext i1 @_ZNKSt8functionIFSt8optionalIN4llvm6object16SectionedAddressEEjEEcvbEv(ptr noundef nonnull align 8 dereferenceable(32) %0) #0 comdat align 2 {
  %2 = alloca ptr, align 8
  store ptr %0, ptr %2, align 8
  %3 = load ptr, ptr %2, align 8
  %4 = call noundef zeroext i1 @_ZNKSt14_Function_base8_M_emptyEv(ptr noundef nonnull align 8 dereferenceable(24) %3)
  %5 = xor i1 %4, true
  ret i1 %5
}

; Function Attrs: mustprogress nounwind uwtable
define linkonce_odr hidden void @_ZNSt14_Function_baseC2Ev(ptr noundef nonnull align 8 dereferenceable(24) %0) unnamed_addr #0 comdat align 2 {
  %2 = alloca ptr, align 8
  store ptr %0, ptr %2, align 8
  %3 = load ptr, ptr %2, align 8
  %4 = getelementptr inbounds nuw %"class.std::_Function_base", ptr %3, i32 0, i32 0
  store ptr null, ptr %4, align 8
  %5 = getelementptr inbounds nuw %"class.std::_Function_base", ptr %3, i32 0, i32 1
  store ptr null, ptr %5, align 8
  ret void
}

; Function Attrs: mustprogress nounwind uwtable
define internal void @_ZN12_GLOBAL__N_124DWARFLocationInterpreterD2Ev(ptr noundef nonnull align 8 dereferenceable(56) %0) unnamed_addr #0 align 2 {
  %2 = alloca ptr, align 8
  store ptr %0, ptr %2, align 8
  %3 = load ptr, ptr %2, align 8
  %4 = getelementptr inbounds nuw %"class.(anonymous namespace)::DWARFLocationInterpreter", ptr %3, i32 0, i32 1
  call void @_ZNSt8functionIFSt8optionalIN4llvm6object16SectionedAddressEEjEED2Ev(ptr noundef nonnull align 8 dereferenceable(32) %4) #10
  ret void
}

; Function Attrs: mustprogress nounwind uwtable
define internal void @"_ZN4llvm12function_refIFbRKNS_18DWARFLocationEntryEEEC2IZNKS_18DWARFLocationTable25visitAbsoluteLocationListEmSt8optionalINS_6object16SectionedAddressEESt8functionIFSB_jEENS0_IFbNS_8ExpectedINS_23DWARFLocationExpressionEEEEEEE3$_0EEOT_PNSt9enable_ifIXntsr3std7is_sameINS_12remove_cvrefISL_E4typeES5_EE5valueEvE4typeEPNSN_IXooL_ZNSt17integral_constantIbLb0EE5valueEEsr3std14is_convertibleIDTclclsr3stdE7declvalISL_EEclL_ZSt7declvalIS3_EDTcl9__declvalISL_ELi0EEEvEEEEbEE5valueEvE4typeE"(ptr noundef nonnull align 8 dereferenceable(16) %0, ptr noundef nonnull align 8 dereferenceable(16) %1, ptr noundef %2, ptr noundef %3) unnamed_addr #0 align 2 {
  %5 = alloca ptr, align 8
  %6 = alloca ptr, align 8
  %7 = alloca ptr, align 8
  %8 = alloca ptr, align 8
  store ptr %0, ptr %5, align 8
  store ptr %1, ptr %6, align 8
  store ptr %2, ptr %7, align 8
  store ptr %3, ptr %8, align 8
  %9 = load ptr, ptr %5, align 8
  %10 = getelementptr inbounds nuw %"class.llvm::function_ref", ptr %9, i32 0, i32 0
  store ptr @"_ZN4llvm12function_refIFbRKNS_18DWARFLocationEntryEEE11callback_fnIZNKS_18DWARFLocationTable25visitAbsoluteLocationListEmSt8optionalINS_6object16SectionedAddressEESt8functionIFSB_jEENS0_IFbNS_8ExpectedINS_23DWARFLocationExpressionEEEEEEE3$_0EEblS3_", ptr %10, align 8
  %11 = getelementptr inbounds nuw %"class.llvm::function_ref", ptr %9, i32 0, i32 1
  %12 = load ptr, ptr %6, align 8
  %13 = ptrtoint ptr %12 to i64
  store i64 %13, ptr %11, align 8
  ret void
}

; Function Attrs: mustprogress nounwind uwtable
define linkonce_odr hidden void @_ZNSt8functionIFSt8optionalIN4llvm6object16SectionedAddressEEjEED2Ev(ptr noundef nonnull align 8 dereferenceable(32) %0) unnamed_addr #0 comdat align 2 {
  %2 = alloca ptr, align 8
  store ptr %0, ptr %2, align 8
  %3 = load ptr, ptr %2, align 8
  call void @_ZNSt14_Function_baseD2Ev(ptr noundef nonnull align 8 dereferenceable(24) %3) #10
  ret void
}

; Function Attrs: mustprogress nounwind uwtable
define internal void @_ZN12_GLOBAL__N_124DWARFLocationInterpreterC2ESt8optionalIN4llvm6object16SectionedAddressEESt8functionIFS5_jEE(ptr noundef nonnull align 8 dereferenceable(56) %0, ptr noundef byval(%"class.std::optional") align 8 %1, ptr noundef %2) unnamed_addr #0 align 2 {
  %4 = alloca ptr, align 8
  %5 = alloca ptr, align 8
  store ptr %0, ptr %4, align 8
  store ptr %2, ptr %5, align 8
  %6 = load ptr, ptr %4, align 8
  %7 = getelementptr inbounds nuw %"class.(anonymous namespace)::DWARFLocationInterpreter", ptr %6, i32 0, i32 0
  call void @llvm.memcpy.p0.p0.i64(ptr align 8 %7, ptr align 8 %1, i64 24, i1 false)
  %8 = getelementptr inbounds nuw %"class.(anonymous namespace)::DWARFLocationInterpreter", ptr %6, i32 0, i32 1
  call void @_ZNSt8functionIFSt8optionalIN4llvm6object16SectionedAddressEEjEEC2EOS6_(ptr noundef nonnull align 8 dereferenceable(32) %8, ptr noundef nonnull align 8 dereferenceable(32) %2) #10
  ret void
}

; Function Attrs: mustprogress nounwind uwtable
define linkonce_odr hidden void @_ZNSt8functionIFSt8optionalIN4llvm6object16SectionedAddressEEjEEC2EOS6_(ptr noundef nonnull align 8 dereferenceable(32) %0, ptr noundef nonnull align 8 dereferenceable(32) %1) unnamed_addr #0 comdat align 2 {
  %3 = alloca ptr, align 8
  %4 = alloca ptr, align 8
  store ptr %0, ptr %3, align 8
  store ptr %1, ptr %4, align 8
  %5 = load ptr, ptr %3, align 8
  %6 = getelementptr inbounds i8, ptr %5, i64 0
  call void @llvm.memset.p0.i64(ptr align 8 %6, i8 0, i64 24, i1 false)
  call void @_ZNSt14_Function_baseC2Ev(ptr noundef nonnull align 8 dereferenceable(24) %5) #10
  %7 = getelementptr inbounds nuw %"class.std::function.2", ptr %5, i32 0, i32 1
  %8 = load ptr, ptr %4, align 8
  %9 = getelementptr inbounds nuw %"class.std::function.2", ptr %8, i32 0, i32 1
  %10 = load ptr, ptr %9, align 8
  store ptr %10, ptr %7, align 8
  %11 = load ptr, ptr %4, align 8
  %12 = call noundef zeroext i1 @_ZNKSt8functionIFSt8optionalIN4llvm6object16SectionedAddressEEjEEcvbEv(ptr noundef nonnull align 8 dereferenceable(32) %11) #10
  br i1 %12, label %13, label %25

13:                                               ; preds = %2
  %14 = load ptr, ptr %4, align 8
  %15 = getelementptr inbounds nuw %"class.std::_Function_base", ptr %14, i32 0, i32 0
  %16 = getelementptr inbounds nuw %"class.std::_Function_base", ptr %5, i32 0, i32 0
  call void @llvm.memcpy.p0.p0.i64(ptr align 8 %16, ptr align 8 %15, i64 16, i1 false)
  %17 = load ptr, ptr %4, align 8
  %18 = getelementptr inbounds nuw %"class.std::_Function_base", ptr %17, i32 0, i32 1
  %19 = load ptr, ptr %18, align 8
  %20 = getelementptr inbounds nuw %"class.std::_Function_base", ptr %5, i32 0, i32 1
  store ptr %19, ptr %20, align 8
  %21 = load ptr, ptr %4, align 8
  %22 = getelementptr inbounds nuw %"class.std::_Function_base", ptr %21, i32 0, i32 1
  store ptr null, ptr %22, align 8
  %23 = load ptr, ptr %4, align 8
  %24 = getelementptr inbounds nuw %"class.std::function.2", ptr %23, i32 0, i32 1
  store ptr null, ptr %24, align 8
  br label %25

25:                                               ; preds = %13, %2
  ret void
}

; Function Attrs: mustprogress nounwind uwtable
define dso_local void @_ZNK4llvm18DWARFLocationTable25visitAbsoluteLocationListEmSt8optionalINS_6object16SectionedAddressEESt8functionIFS4_jEENS_12function_refIFbNS_8ExpectedINS_23DWARFLocationExpressionEEEEEE(ptr dead_on_unwind noalias writable sret(%"class.llvm::Error") align 8 %0, ptr noundef nonnull align 8 dereferenceable(48) %1, i64 noundef %2, ptr noundef byval(%"class.std::optional") align 8 %3, ptr noundef %4, ptr %5, i64 %6) #0 align 2 {
  %8 = alloca ptr, align 8
  %9 = alloca %"class.llvm::function_ref.6", align 8
  %10 = alloca ptr, align 8
  %11 = alloca i64, align 8
  %12 = alloca ptr, align 8
  %13 = alloca %"class.(anonymous namespace)::DWARFLocationInterpreter", align 8
  %14 = alloca %"class.std::optional", align 8
  %15 = alloca %"class.std::function.2", align 8
  %16 = alloca %"class.llvm::function_ref", align 8
  %17 = alloca %class.anon.7, align 8
  store ptr %0, ptr %8, align 8
  %18 = getelementptr inbounds nuw { ptr, i64 }, ptr %9, i32 0, i32 0
  store ptr %5, ptr %18, align 8
  %19 = getelementptr inbounds nuw { ptr, i64 }, ptr %9, i32 0, i32 1
  store i64 %6, ptr %19, align 8
  store ptr %1, ptr %10, align 8
  store i64 %2, ptr %11, align 8
  store ptr %4, ptr %12, align 8
  %20 = load ptr, ptr %10, align 8
  call void @llvm.memcpy.p0.p0.i64(ptr align 8 %14, ptr align 8 %3, i64 24, i1 false)
  call void @_ZNSt8functionIFSt8optionalIN4llvm6object16SectionedAddressEEjEEC2EOS6_(ptr noundef nonnull align 8 dereferenceable(32) %15, ptr noundef nonnull align 8 dereferenceable(32) %4) #10
  call void @_ZN12_GLOBAL__N_124DWARFLocationInterpreterC2ESt8optionalIN4llvm6object16SectionedAddressEESt8functionIFS5_jEE(ptr noundef nonnull align 8 dereferenceable(56) %13, ptr noundef byval(%"class.std::optional") align 8 %14, ptr noundef %15)
  call void @_ZNSt8functionIFSt8optionalIN4llvm6object16SectionedAddressEEjEED2Ev(ptr noundef nonnull align 8 dereferenceable(32) %15) #10
  %21 = getelementptr inbounds nuw %class.anon.7, ptr %17, i32 0, i32 0
  store ptr %13, ptr %21, align 8
  %22 = getelementptr inbounds nuw %class.anon.7, ptr %17, i32 0, i32 1
  store ptr %9, ptr %22, align 8
  call void @"_ZN4llvm12function_refIFbRKNS_18DWARFLocationEntryEEEC2IZNKS_18DWARFLocationTable25visitAbsoluteLocationListEmSt8optionalINS_6object16SectionedAddressEESt8functionIFSB_jEENS0_IFbNS_8ExpectedINS_23DWARFLocationExpressionEEEEEEE3$_0EEOT_PNSt9enable_ifIXntsr3std7is_sameINS_12remove_cvrefISL_E4typeES5_EE5valueEvE4typeEPNSN_IXooL_ZNSt17integral_constantIbLb0EE5valueEEsr3std14is_convertibleIDTclclsr3stdE7declvalISL_EEclL_ZSt7declvalIS3_EDTcl9__declvalISL_ELi0EEEvEEEEbEE5valueEvE4typeE"(ptr noundef nonnull align 8 dereferenceable(16) %16, ptr noundef nonnull align 8 dereferenceable(16) %17, ptr noundef null, ptr noundef null)
  %23 = getelementptr inbounds nuw { ptr, i64 }, ptr %16, i32 0, i32 0
  %24 = load ptr, ptr %23, align 8
  %25 = getelementptr inbounds nuw { ptr, i64 }, ptr %16, i32 0, i32 1
  %26 = load i64, ptr %25, align 8
  %27 = load ptr, ptr %20, align 8
  %28 = getelementptr inbounds ptr, ptr %27, i64 2
  %29 = load ptr, ptr %28, align 8
  call void %29(ptr dead_on_unwind writable sret(%"class.llvm::Error") align 8 %0, ptr noundef nonnull align 8 dereferenceable(48) %20, ptr noundef %11, ptr %24, i64 %26)
  call void @_ZN12_GLOBAL__N_124DWARFLocationInterpreterD2Ev(ptr noundef nonnull align 8 dereferenceable(56) %13) #10
  ret void
}