; Function Attrs: mustprogress nounwind uwtable
define dso_local void @_ZNK4llvm18DWARFLocationTable25visitAbsoluteLocationListEmSt8optionalINS_6object16SectionedAddressEESt8functionIFS4_jEENS_12function_refIFbNS_8ExpectedINS_23DWARFLocationExpressionEEEEEE(ptr dead_on_unwind noalias writable sret(%"class.llvm::Error") align 8 %0, ptr noundef nonnull align 8 dereferenceable(48) %1, i64 noundef %2, ptr noundef readonly byval(%"class.std::optional") align 8 captures(none) %3, ptr noundef captures(none) %4, ptr %5, i64 %6) local_unnamed_addr #0 align 2 {
  %8 = alloca %"class.llvm::function_ref.6", align 8
  %9 = alloca i64, align 8
  %10 = alloca %"class.(anonymous namespace)::DWARFLocationInterpreter", align 8
  %.sroa.0 = alloca { i64, i64 }, align 8
  %11 = alloca %class.anon.7, align 8
  store ptr %5, ptr %8, align 8
  %12 = getelementptr inbounds nuw i8, ptr %8, i64 8
  store i64 %6, ptr %12, align 8
  store i64 %2, ptr %9, align 8
  %13 = getelementptr inbounds nuw i8, ptr %4, i64 24
  call void @llvm.memset.p0.i64(ptr noundef nonnull align 8 dereferenceable(16) %.sroa.0, i8 0, i64 16, i1 false)
  %14 = load ptr, ptr %13, align 8
  %15 = getelementptr inbounds nuw i8, ptr %4, i64 16
  %16 = load ptr, ptr %15, align 8
  %.not.i.i.not.i = icmp eq ptr %16, null
  br i1 %.not.i.i.not.i, label %_ZNSt8functionIFSt8optionalIN4llvm6object16SectionedAddressEEjEEC2EOS6_.exit, label %17

17:                                               ; preds = %7
  call void @llvm.memcpy.p0.p0.i64(ptr noundef nonnull align 8 dereferenceable(16) %.sroa.0, ptr noundef nonnull align 8 dereferenceable(16) %4, i64 16, i1 false)
  tail call void @llvm.memset.p0.i64(ptr noundef nonnull align 8 dereferenceable(16) %15, i8 0, i64 16, i1 false)
  br label %_ZNSt8functionIFSt8optionalIN4llvm6object16SectionedAddressEEjEEC2EOS6_.exit

_ZNSt8functionIFSt8optionalIN4llvm6object16SectionedAddressEEjEEC2EOS6_.exit: ; preds = %7, %17
  call void @llvm.memcpy.p0.p0.i64(ptr noundef nonnull align 8 dereferenceable(24) %10, ptr noundef nonnull align 8 dereferenceable(24) %3, i64 24, i1 false)
  %18 = getelementptr inbounds nuw i8, ptr %10, i64 24
  %19 = getelementptr inbounds nuw i8, ptr %10, i64 48
  call void @llvm.memset.p0.i64(ptr noundef nonnull align 8 dereferenceable(32) %18, i8 0, i64 24, i1 false)
  store ptr %14, ptr %19, align 8
  %.not.i.i.not.i.i = icmp eq ptr %16, null
  br i1 %.not.i.i.not.i.i, label %_ZNSt8functionIFSt8optionalIN4llvm6object16SectionedAddressEEjEED2Ev.exit, label %_ZN12_GLOBAL__N_124DWARFLocationInterpreterC2ESt8optionalIN4llvm6object16SectionedAddressEESt8functionIFS5_jEE.exit

_ZN12_GLOBAL__N_124DWARFLocationInterpreterC2ESt8optionalIN4llvm6object16SectionedAddressEESt8functionIFS5_jEE.exit: ; preds = %_ZNSt8functionIFSt8optionalIN4llvm6object16SectionedAddressEEjEEC2EOS6_.exit
  %20 = getelementptr inbounds nuw i8, ptr %10, i64 40
  call void @llvm.memcpy.p0.p0.i64(ptr noundef nonnull align 8 dereferenceable(16) %18, ptr noundef nonnull align 8 dereferenceable(16) %.sroa.0, i64 16, i1 false)
  store ptr %16, ptr %20, align 8
  br label %_ZNSt8functionIFSt8optionalIN4llvm6object16SectionedAddressEEjEED2Ev.exit

_ZNSt8functionIFSt8optionalIN4llvm6object16SectionedAddressEEjEED2Ev.exit: ; preds = %_ZNSt8functionIFSt8optionalIN4llvm6object16SectionedAddressEEjEEC2EOS6_.exit, %_ZN12_GLOBAL__N_124DWARFLocationInterpreterC2ESt8optionalIN4llvm6object16SectionedAddressEESt8functionIFS5_jEE.exit
  store ptr %10, ptr %11, align 8
  %21 = getelementptr inbounds nuw i8, ptr %11, i64 8
  store ptr %8, ptr %21, align 8
  %22 = ptrtoint ptr %11 to i64
  %23 = load ptr, ptr %1, align 8
  %24 = getelementptr inbounds nuw i8, ptr %23, i64 16
  %25 = load ptr, ptr %24, align 8
  call void %25(ptr dead_on_unwind writable sret(%"class.llvm::Error") align 8 %0, ptr noundef nonnull align 8 dereferenceable(48) %1, ptr noundef nonnull %9, ptr nonnull @"_ZN4llvm12function_refIFbRKNS_18DWARFLocationEntryEEE11callback_fnIZNKS_18DWARFLocationTable25visitAbsoluteLocationListEmSt8optionalINS_6object16SectionedAddressEESt8functionIFSB_jEENS0_IFbNS_8ExpectedINS_23DWARFLocationExpressionEEEEEEE3$_0EEblS3_", i64 %22) #16
  %26 = getelementptr inbounds nuw i8, ptr %10, i64 40
  %27 = load ptr, ptr %26, align 8
  %.not.i.i.i = icmp eq ptr %27, null
  br i1 %.not.i.i.i, label %_ZN12_GLOBAL__N_124DWARFLocationInterpreterD2Ev.exit, label %28

28:                                               ; preds = %_ZNSt8functionIFSt8optionalIN4llvm6object16SectionedAddressEEjEED2Ev.exit
  %29 = call noundef zeroext i1 %27(ptr noundef nonnull align 8 dereferenceable(32) %18, ptr noundef nonnull align 8 dereferenceable(32) %18, i32 noundef 3) #16
  br label %_ZN12_GLOBAL__N_124DWARFLocationInterpreterD2Ev.exit

_ZN12_GLOBAL__N_124DWARFLocationInterpreterD2Ev.exit: ; preds = %_ZNSt8functionIFSt8optionalIN4llvm6object16SectionedAddressEEjEED2Ev.exit, %28
  ret void
}